   1              		.arch armv5te
   2              		.fpu softvfp
   3              		.eabi_attribute 20, 1
   4              		.eabi_attribute 21, 1
   5              		.eabi_attribute 23, 3
   6              		.eabi_attribute 24, 1
   7              		.eabi_attribute 25, 1
   8              		.eabi_attribute 26, 2
   9              		.eabi_attribute 30, 1
  10              		.eabi_attribute 34, 0
  11              		.eabi_attribute 18, 4
  12              		.file	"Arm_motor.c"
  13              		.text
  14              	.Ltext0:
  15              		.cfi_sections	.debug_frame
  16              		.align	2
  17              		.global	arm_setpos
  19              	arm_setpos:
  20              		.fnstart
  21              	.LFB22:
  22              		.file 1 "Arm_motor.c"
   1:Arm_motor.c   **** //
   2:Arm_motor.c   **** //  Arm_motor.c
   3:Arm_motor.c   **** //  Cube3*3
   4:Arm_motor.c   **** //
   5:Arm_motor.c   **** //  Created by 杨春霞 on 12.11.15.
   6:Arm_motor.c   **** //  Copyright © 2015 Chunxia Yang. All rights reserved.
   7:Arm_motor.c   **** //
   8:Arm_motor.c   **** 
   9:Arm_motor.c   **** 
  10:Arm_motor.c   **** #include <fcntl.h>
  11:Arm_motor.c   **** #include <stdio.h>
  12:Arm_motor.c   **** #include <sys/mman.h>
  13:Arm_motor.c   **** 
  14:Arm_motor.c   **** #ifdef __linux__
  15:Arm_motor.c   **** #include "lms2012.h"
  16:Arm_motor.c   **** #include "../lms2012/c_output.h"
  17:Arm_motor.c   **** #endif
  18:Arm_motor.c   **** 
  19:Arm_motor.c   **** #include <unistd.h>
  20:Arm_motor.c   **** #include <stdlib.h>
  21:Arm_motor.c   **** #include "Arm_motor.h"
  22:Arm_motor.c   **** 
  23:Arm_motor.c   **** 
  24:Arm_motor.c   **** #ifdef __linux__
  25:Arm_motor.c   **** const int MOTOR_SPEED=20;//power:0~100
  26:Arm_motor.c   **** const char MOTOR_PORT_A = 0x01; //Ausfahrbarer Greifarm Motor;
  27:Arm_motor.c   **** 
  28:Arm_motor.c   **** #if 0
  29:Arm_motor.c   **** MOTORDATA *pMotorData;
  30:Arm_motor.c   **** int motor_file;
  31:Arm_motor.c   **** int encoder_file;
  32:Arm_motor.c   **** #else
  33:Arm_motor.c   **** OUTPUT_GLOBALS OutputInstance;
  34:Arm_motor.c   **** #endif
  35:Arm_motor.c   **** 
  36:Arm_motor.c   **** int arm_referenz=0;
  37:Arm_motor.c   **** int arm_ist=0;
  38:Arm_motor.c   **** const int arm_winkel[]={4,-83,-150,-240,-330};//-85   231
  39:Arm_motor.c   **** #endif
  40:Arm_motor.c   **** 
  41:Arm_motor.c   **** 
  42:Arm_motor.c   **** int arm_init()
  43:Arm_motor.c   **** {
  44:Arm_motor.c   **** #ifdef __linux__
  45:Arm_motor.c   **** /*
  46:Arm_motor.c   ****     if ((motor_file = open(PWM_DEVICE_NAME, O_WRONLY))== -1)
  47:Arm_motor.c   ****     {
  48:Arm_motor.c   ****         printf("Failed to open device\n");
  49:Arm_motor.c   ****         return -1;
  50:Arm_motor.c   ****     }
  51:Arm_motor.c   ****     
  52:Arm_motor.c   ****     if((encoder_file = open(MOTOR_DEVICE_NAME, O_RDWR | O_SYNC)) == -1)
  53:Arm_motor.c   ****         return -1;
  54:Arm_motor.c   ****     pMotorData = (MOTORDATA*)mmap (0, sizeof(MOTORDATA)*vmOUTPUTS, PROT_READ|PROT_WRITE,MAP_FILE|MA
  55:Arm_motor.c   ****     
  56:Arm_motor.c   ****     if (pMotorData == MAP_FAILED)
  57:Arm_motor.c   ****     {
  58:Arm_motor.c   ****         printf("Map failed\n");
  59:Arm_motor.c   ****         return -1;
  60:Arm_motor.c   ****     }
  61:Arm_motor.c   ****     char motor_command[4];
  62:Arm_motor.c   ****     motor_command[0]=opOUTPUT_SPEED;
  63:Arm_motor.c   ****     motor_command[1]=MOTOR_PORT_A;
  64:Arm_motor.c   ****     motor_command[2]=MOTOR_SPEED;
  65:Arm_motor.c   ****     write(motor_file,motor_command,3);// motor_speed Wert geben
  66:Arm_motor.c   ****     
  67:Arm_motor.c   ****     motor_command[0]=opOUTPUT_START;
  68:Arm_motor.c   ****     motor_command[1]=MOTOR_PORT_A;
  69:Arm_motor.c   ****     write(motor_file,motor_command,2);// Motor starten
  70:Arm_motor.c   ****     
  71:Arm_motor.c   ****     int old_TachoSensor;
  72:Arm_motor.c   ****     old_TachoSensor=pMotorData[0].TachoSensor;
  73:Arm_motor.c   ****     
  74:Arm_motor.c   ****     usleep(1000000);
  75:Arm_motor.c   ****     while(old_TachoSensor!=pMotorData[0].TachoSensor){
  76:Arm_motor.c   ****         old_TachoSensor=pMotorData[0].TachoSensor;
  77:Arm_motor.c   ****         usleep(10000);
  78:Arm_motor.c   ****     }
  79:Arm_motor.c   ****     
  80:Arm_motor.c   ****     motor_command[0]=opOUTPUT_STOP;
  81:Arm_motor.c   ****     motor_command[1]=MOTOR_PORT_A;
  82:Arm_motor.c   ****     motor_command[2]=1;
  83:Arm_motor.c   ****     write(motor_file,motor_command,3);  // Motor stoppen
  84:Arm_motor.c   **** */
  85:Arm_motor.c   ****     
  86:Arm_motor.c   ****     cOutputInit();
  87:Arm_motor.c   ****     cOutputSpeed(MOTOR_PORT_A,MOTOR_SPEED);
  88:Arm_motor.c   ****     cOutputStart(MOTOR_PORT_A);
  89:Arm_motor.c   ****     int old_TachoSensor;
  90:Arm_motor.c   ****     old_TachoSensor=cOutputGetCount(0);
  91:Arm_motor.c   ****     usleep(1000000);
  92:Arm_motor.c   ****     while(old_TachoSensor!=cOutputGetCount(0)){
  93:Arm_motor.c   ****         old_TachoSensor=cOutputGetCount(0);
  94:Arm_motor.c   ****         usleep(10000);
  95:Arm_motor.c   ****     }
  96:Arm_motor.c   ****     cOutputStop(MOTOR_PORT_A,1);
  97:Arm_motor.c   ****     arm_referenz=cOutputGetCount(0);
  98:Arm_motor.c   ****     arm_ist = 0;
  99:Arm_motor.c   ****     arm_setpos(4);
 100:Arm_motor.c   ****     printf("Arm_referenzPosition angefahren %d\n\r",arm_referenz);
 101:Arm_motor.c   **** #endif
 102:Arm_motor.c   ****     return 0;
 103:Arm_motor.c   **** }
 104:Arm_motor.c   **** 
 105:Arm_motor.c   **** 
 106:Arm_motor.c   **** 
 107:Arm_motor.c   **** 
 108:Arm_motor.c   **** int arm_setpos(int arm_soll)
 109:Arm_motor.c   **** {
  23              		.loc 1 109 0
  24              		.cfi_startproc
  25              		@ args = 0, pretend = 0, frame = 0
  26              		@ frame_needed = 0, uses_anonymous_args = 0
  27              	.LVL0:
  28 0000 F0412DE9 		stmfd	sp!, {r4, r5, r6, r7, r8, lr}
  29              		.save {r4, r5, r6, r7, r8, lr}
  30              		.cfi_def_cfa_offset 24
  31              		.cfi_offset 4, -24
  32              		.cfi_offset 5, -20
  33              		.cfi_offset 6, -16
  34              		.cfi_offset 7, -12
  35              		.cfi_offset 8, -8
  36              		.cfi_offset 14, -4
  37 0004 0070A0E1 		mov	r7, r0
 110:Arm_motor.c   **** #ifdef __linux__
 111:Arm_motor.c   **** #if 0
 112:Arm_motor.c   ****     char motor_command[4];
 113:Arm_motor.c   ****     
 114:Arm_motor.c   ****     motor_command[0]=opOUTPUT_SPEED;
 115:Arm_motor.c   ****     motor_command[1]=MOTOR_PORT_A;
 116:Arm_motor.c   ****     if(arm_winkel[arm_ist]<arm_winkel[arm_soll])
 117:Arm_motor.c   ****     {
 118:Arm_motor.c   ****         motor_command[2]=MOTOR_SPEED;
 119:Arm_motor.c   ****         write(motor_file,motor_command,3);  //motor_speed Wert geben
 120:Arm_motor.c   ****         
 121:Arm_motor.c   ****         motor_command[0]=opOUTPUT_START;
 122:Arm_motor.c   ****         motor_command[1]=MOTOR_PORT_A;
 123:Arm_motor.c   ****         write(motor_file,motor_command,2);  //Motor starten
 124:Arm_motor.c   ****         
 125:Arm_motor.c   ****         while ((pMotorData[0].TachoSensor-arm_referenz) < arm_winkel[arm_soll])
 126:Arm_motor.c   ****         {
 127:Arm_motor.c   ****             /* printf("Spd/Cnt/Snr: A=%d/%d/%d\n", pMotorData[0].Speed, pMotorData[0].TachoCounts, 
 128:Arm_motor.c   ****             usleep(10000);
 129:Arm_motor.c   ****         }
 130:Arm_motor.c   ****     }
 131:Arm_motor.c   ****     else
 132:Arm_motor.c   ****     {
 133:Arm_motor.c   ****         motor_command[2]=-MOTOR_SPEED;
 134:Arm_motor.c   ****         write(motor_file,motor_command,3);  //motor_speed Wert geben
 135:Arm_motor.c   ****         
 136:Arm_motor.c   ****         motor_command[0]=opOUTPUT_START;
 137:Arm_motor.c   ****         motor_command[1]=MOTOR_PORT_A;
 138:Arm_motor.c   ****         write(motor_file,motor_command,2);  //Motor starten
 139:Arm_motor.c   ****         
 140:Arm_motor.c   ****         
 141:Arm_motor.c   ****         while ((pMotorData[0].TachoSensor-arm_referenz) > arm_winkel[arm_soll])
 142:Arm_motor.c   ****         {
 143:Arm_motor.c   ****             /*printf("Spd/Cnt/Snr: A=%d/%d/%d\n", pMotorData[0].Speed, pMotorData[0].TachoCounts, p
 144:Arm_motor.c   ****             usleep(10000);
 145:Arm_motor.c   ****         }
 146:Arm_motor.c   ****     }
 147:Arm_motor.c   ****     
 148:Arm_motor.c   ****     motor_command[0]=opOUTPUT_STOP;
 149:Arm_motor.c   ****     motor_command[1]=MOTOR_PORT_A;
 150:Arm_motor.c   ****     motor_command[2]=1;
 151:Arm_motor.c   ****     write(motor_file,motor_command,3); //Motor stopppen
 152:Arm_motor.c   **** #else
 153:Arm_motor.c   ****     if(arm_winkel[arm_ist]<arm_winkel[arm_soll]){
  38              		.loc 1 153 0
  39 0008 C4309FE5 		ldr	r3, .L8
  40 000c 004193E7 		ldr	r4, [r3, r0, asl #2]
  41 0010 C0209FE5 		ldr	r2, .L8+4
  42 0014 002092E5 		ldr	r2, [r2]
  43 0018 023193E7 		ldr	r3, [r3, r2, asl #2]
  44 001c 040053E1 		cmp	r3, r4
  45 0020 110000AA 		bge	.L2
 154:Arm_motor.c   ****         cOutputSpeed(MOTOR_PORT_A,MOTOR_SPEED);
  46              		.loc 1 154 0
  47 0024 0100A0E3 		mov	r0, #1
  48              	.LVL1:
  49 0028 1410A0E3 		mov	r1, #20
  50 002c FEFFFFEB 		bl	cOutputSpeed
  51              	.LVL2:
 155:Arm_motor.c   ****         cOutputStart(MOTOR_PORT_A);
  52              		.loc 1 155 0
  53 0030 0100A0E3 		mov	r0, #1
  54 0034 FEFFFFEB 		bl	cOutputStart
  55              	.LVL3:
 156:Arm_motor.c   ****         while ((cOutputGetCount(0)-arm_referenz) < arm_winkel[arm_soll])
  56              		.loc 1 156 0
  57 0038 0060A0E3 		mov	r6, #0
  58 003c 94509FE5 		ldr	r5, .L8+4
 157:Arm_motor.c   ****         {
 158:Arm_motor.c   ****             usleep(10000);
  59              		.loc 1 158 0
  60 0040 94809FE5 		ldr	r8, .L8+8
 156:Arm_motor.c   ****         while ((cOutputGetCount(0)-arm_referenz) < arm_winkel[arm_soll])
  61              		.loc 1 156 0
  62 0044 010000EA 		b	.L3
  63              	.L4:
  64              		.loc 1 158 0
  65 0048 0800A0E1 		mov	r0, r8
  66 004c FEFFFFEB 		bl	usleep
  67              	.LVL4:
  68              	.L3:
 156:Arm_motor.c   ****         while ((cOutputGetCount(0)-arm_referenz) < arm_winkel[arm_soll])
  69              		.loc 1 156 0 discriminator 1
  70 0050 0600A0E1 		mov	r0, r6
  71 0054 FEFFFFEB 		bl	cOutputGetCount
  72              	.LVL5:
  73 0058 043095E5 		ldr	r3, [r5, #4]
  74 005c 000063E0 		rsb	r0, r3, r0
  75 0060 000054E1 		cmp	r4, r0
  76 0064 F7FFFFCA 		bgt	.L4
  77 0068 100000EA 		b	.L5
  78              	.LVL6:
  79              	.L2:
 159:Arm_motor.c   ****         }
 160:Arm_motor.c   ****     }else{
 161:Arm_motor.c   ****         cOutputSpeed(MOTOR_PORT_A,-MOTOR_SPEED);
  80              		.loc 1 161 0
  81 006c 0100A0E3 		mov	r0, #1
  82              	.LVL7:
  83 0070 1310E0E3 		mvn	r1, #19
  84 0074 FEFFFFEB 		bl	cOutputSpeed
  85              	.LVL8:
 162:Arm_motor.c   ****         cOutputStart(MOTOR_PORT_A);
  86              		.loc 1 162 0
  87 0078 0100A0E3 		mov	r0, #1
  88 007c FEFFFFEB 		bl	cOutputStart
  89              	.LVL9:
 163:Arm_motor.c   ****         while ((cOutputGetCount(0)-arm_referenz) > arm_winkel[arm_soll])
  90              		.loc 1 163 0
  91 0080 0060A0E3 		mov	r6, #0
  92 0084 4C509FE5 		ldr	r5, .L8+4
 164:Arm_motor.c   ****         {
 165:Arm_motor.c   ****             usleep(10000);
  93              		.loc 1 165 0
  94 0088 4C809FE5 		ldr	r8, .L8+8
 163:Arm_motor.c   ****         while ((cOutputGetCount(0)-arm_referenz) > arm_winkel[arm_soll])
  95              		.loc 1 163 0
  96 008c 010000EA 		b	.L6
  97              	.L7:
  98              		.loc 1 165 0
  99 0090 0800A0E1 		mov	r0, r8
 100 0094 FEFFFFEB 		bl	usleep
 101              	.LVL10:
 102              	.L6:
 163:Arm_motor.c   ****         while ((cOutputGetCount(0)-arm_referenz) > arm_winkel[arm_soll])
 103              		.loc 1 163 0 discriminator 1
 104 0098 0600A0E1 		mov	r0, r6
 105 009c FEFFFFEB 		bl	cOutputGetCount
 106              	.LVL11:
 107 00a0 043095E5 		ldr	r3, [r5, #4]
 108 00a4 000063E0 		rsb	r0, r3, r0
 109 00a8 000054E1 		cmp	r4, r0
 110 00ac F7FFFFBA 		blt	.L7
 111              	.L5:
 166:Arm_motor.c   ****         }
 167:Arm_motor.c   ****         
 168:Arm_motor.c   ****     }
 169:Arm_motor.c   ****     cOutputStop(MOTOR_PORT_A,1);
 112              		.loc 1 169 0
 113 00b0 0100A0E3 		mov	r0, #1
 114 00b4 0010A0E1 		mov	r1, r0
 115 00b8 FEFFFFEB 		bl	cOutputStop
 116              	.LVL12:
 170:Arm_motor.c   **** #endif
 171:Arm_motor.c   ****     arm_ist=arm_soll;
 117              		.loc 1 171 0
 118 00bc 14309FE5 		ldr	r3, .L8+4
 119 00c0 007083E5 		str	r7, [r3]
 172:Arm_motor.c   ****     usleep(100000);
 120              		.loc 1 172 0
 121 00c4 14009FE5 		ldr	r0, .L8+12
 122 00c8 FEFFFFEB 		bl	usleep
 123              	.LVL13:
 173:Arm_motor.c   **** #endif
 174:Arm_motor.c   ****     return 0;
 175:Arm_motor.c   **** }
 124              		.loc 1 175 0
 125 00cc 0000A0E3 		mov	r0, #0
 126 00d0 F081BDE8 		ldmfd	sp!, {r4, r5, r6, r7, r8, pc}
 127              	.L9:
 128              		.align	2
 129              	.L8:
 130 00d4 00000000 		.word	.LANCHOR0
 131 00d8 00000000 		.word	.LANCHOR1
 132 00dc 10270000 		.word	10000
 133 00e0 A0860100 		.word	100000
 134              		.cfi_endproc
 135              	.LFE22:
 136              		.fnend
 138              		.align	2
 139              		.global	arm_init
 141              	arm_init:
 142              		.fnstart
 143              	.LFB21:
  43:Arm_motor.c   **** #ifdef __linux__
 144              		.loc 1 43 0
 145              		.cfi_startproc
 146              		@ args = 0, pretend = 0, frame = 0
 147              		@ frame_needed = 0, uses_anonymous_args = 0
 148 00e4 70402DE9 		stmfd	sp!, {r4, r5, r6, lr}
 149              		.save {r4, r5, r6, lr}
 150              		.cfi_def_cfa_offset 16
 151              		.cfi_offset 4, -16
 152              		.cfi_offset 5, -12
 153              		.cfi_offset 6, -8
 154              		.cfi_offset 14, -4
  86:Arm_motor.c   ****     cOutputSpeed(MOTOR_PORT_A,MOTOR_SPEED);
 155              		.loc 1 86 0
 156 00e8 FEFFFFEB 		bl	cOutputInit
 157              	.LVL14:
  87:Arm_motor.c   ****     cOutputStart(MOTOR_PORT_A);
 158              		.loc 1 87 0
 159 00ec 0100A0E3 		mov	r0, #1
 160 00f0 1410A0E3 		mov	r1, #20
 161 00f4 FEFFFFEB 		bl	cOutputSpeed
 162              	.LVL15:
  88:Arm_motor.c   ****     int old_TachoSensor;
 163              		.loc 1 88 0
 164 00f8 0100A0E3 		mov	r0, #1
 165 00fc FEFFFFEB 		bl	cOutputStart
 166              	.LVL16:
  90:Arm_motor.c   ****     usleep(1000000);
 167              		.loc 1 90 0
 168 0100 0000A0E3 		mov	r0, #0
 169 0104 FEFFFFEB 		bl	cOutputGetCount
 170              	.LVL17:
 171 0108 0050A0E1 		mov	r5, r0
 172              	.LVL18:
  91:Arm_motor.c   ****     while(old_TachoSensor!=cOutputGetCount(0)){
 173              		.loc 1 91 0
 174 010c 70009FE5 		ldr	r0, .L13
 175              	.LVL19:
 176 0110 FEFFFFEB 		bl	usleep
 177              	.LVL20:
  92:Arm_motor.c   ****         old_TachoSensor=cOutputGetCount(0);
 178              		.loc 1 92 0
 179 0114 0040A0E3 		mov	r4, #0
  94:Arm_motor.c   ****     }
 180              		.loc 1 94 0
 181 0118 68609FE5 		ldr	r6, .L13+4
  92:Arm_motor.c   ****         old_TachoSensor=cOutputGetCount(0);
 182              		.loc 1 92 0
 183 011c 040000EA 		b	.L11
 184              	.L12:
  93:Arm_motor.c   ****         usleep(10000);
 185              		.loc 1 93 0
 186 0120 0400A0E1 		mov	r0, r4
 187 0124 FEFFFFEB 		bl	cOutputGetCount
 188              	.LVL21:
 189 0128 0050A0E1 		mov	r5, r0
 190              	.LVL22:
  94:Arm_motor.c   ****     }
 191              		.loc 1 94 0
 192 012c 0600A0E1 		mov	r0, r6
 193              	.LVL23:
 194 0130 FEFFFFEB 		bl	usleep
 195              	.LVL24:
 196              	.L11:
  92:Arm_motor.c   ****         old_TachoSensor=cOutputGetCount(0);
 197              		.loc 1 92 0 discriminator 1
 198 0134 0400A0E1 		mov	r0, r4
 199 0138 FEFFFFEB 		bl	cOutputGetCount
 200              	.LVL25:
 201 013c 050050E1 		cmp	r0, r5
 202 0140 F6FFFF1A 		bne	.L12
  96:Arm_motor.c   ****     arm_referenz=cOutputGetCount(0);
 203              		.loc 1 96 0
 204 0144 0100A0E3 		mov	r0, #1
 205 0148 0010A0E1 		mov	r1, r0
 206 014c FEFFFFEB 		bl	cOutputStop
 207              	.LVL26:
  97:Arm_motor.c   ****     arm_ist = 0;
 208              		.loc 1 97 0
 209 0150 0000A0E3 		mov	r0, #0
 210 0154 FEFFFFEB 		bl	cOutputGetCount
 211              	.LVL27:
 212 0158 2C409FE5 		ldr	r4, .L13+8
 213 015c 040084E5 		str	r0, [r4, #4]
  98:Arm_motor.c   ****     arm_setpos(4);
 214              		.loc 1 98 0
 215 0160 0050A0E3 		mov	r5, #0
 216              	.LVL28:
 217 0164 005084E5 		str	r5, [r4]
  99:Arm_motor.c   ****     printf("Arm_referenzPosition angefahren %d\n\r",arm_referenz);
 218              		.loc 1 99 0
 219 0168 0400A0E3 		mov	r0, #4
 220 016c FEFFFFEB 		bl	arm_setpos
 221              	.LVL29:
 100:Arm_motor.c   **** #endif
 222              		.loc 1 100 0
 223 0170 18009FE5 		ldr	r0, .L13+12
 224 0174 041094E5 		ldr	r1, [r4, #4]
 225 0178 FEFFFFEB 		bl	printf
 226              	.LVL30:
 103:Arm_motor.c   **** 
 227              		.loc 1 103 0
 228 017c 0500A0E1 		mov	r0, r5
 229 0180 7080BDE8 		ldmfd	sp!, {r4, r5, r6, pc}
 230              	.L14:
 231              		.align	2
 232              	.L13:
 233 0184 40420F00 		.word	1000000
 234 0188 10270000 		.word	10000
 235 018c 00000000 		.word	.LANCHOR1
 236 0190 00000000 		.word	.LC0
 237              		.cfi_endproc
 238              	.LFE21:
 239              		.fnend
 241              		.align	2
 242              		.global	arm_close
 244              	arm_close:
 245              		.fnstart
 246              	.LFB23:
 176:Arm_motor.c   **** 
 177:Arm_motor.c   **** 
 178:Arm_motor.c   **** int arm_close()
 179:Arm_motor.c   **** {
 247              		.loc 1 179 0
 248              		.cfi_startproc
 249              		@ args = 0, pretend = 0, frame = 0
 250              		@ frame_needed = 0, uses_anonymous_args = 0
 251 0194 08402DE9 		stmfd	sp!, {r3, lr}
 252              		.save {r3, lr}
 253              		.cfi_def_cfa_offset 8
 254              		.cfi_offset 3, -8
 255              		.cfi_offset 14, -4
 180:Arm_motor.c   **** #ifdef __linux__
 181:Arm_motor.c   **** #if 0
 182:Arm_motor.c   ****     char motor_command[4];
 183:Arm_motor.c   ****     
 184:Arm_motor.c   ****     motor_command[0] = opOUTPUT_STOP;
 185:Arm_motor.c   ****     motor_command[1] = MOTOR_PORT_A;
 186:Arm_motor.c   ****     motor_command[2]=0;
 187:Arm_motor.c   ****     write(motor_file,motor_command,3);
 188:Arm_motor.c   ****     
 189:Arm_motor.c   ****     close(encoder_file);
 190:Arm_motor.c   ****     close(motor_file);
 191:Arm_motor.c   **** #else
 192:Arm_motor.c   ****     cOutputExit();
 256              		.loc 1 192 0
 257 0198 FEFFFFEB 		bl	cOutputExit
 258              	.LVL31:
 193:Arm_motor.c   **** #endif
 194:Arm_motor.c   ****     
 195:Arm_motor.c   **** #endif
 196:Arm_motor.c   ****     return 0;
 197:Arm_motor.c   **** }...
 259              		.loc 1 197 0
 260 019c 0000A0E3 		mov	r0, #0
 261 01a0 0880BDE8 		ldmfd	sp!, {r3, pc}
 262              		.cfi_endproc
 263              	.LFE23:
 264              		.fnend
 266              		.global	arm_winkel
 267              		.global	arm_ist
 268              		.global	arm_referenz
 269              		.comm	OutputInstance,64,4
 270              		.global	MOTOR_PORT_A
 271              		.global	MOTOR_SPEED
 272              		.section	.rodata
 273              		.align	2
 274              	.LANCHOR0 = . + 0
 277              	arm_winkel:
 278 0000 04000000 		.word	4
 279 0004 ADFFFFFF 		.word	-83
 280 0008 6AFFFFFF 		.word	-150
 281 000c 10FFFFFF 		.word	-240
 282 0010 B6FEFFFF 		.word	-330
 285              	MOTOR_PORT_A:
 286 0014 01       		.byte	1
 287 0015 000000   		.space	3
 290              	MOTOR_SPEED:
 291 0018 14000000 		.word	20
 292              		.section	.rodata.str1.4,"aMS",%progbits,1
 293              		.align	2
 294              	.LC0:
 295 0000 41726D5F 		.ascii	"Arm_referenzPosition angefahren %d\012\015\000"
 295      72656665 
 295      72656E7A 
 295      506F7369 
 295      74696F6E 
 296 0025 000000   		.bss
 297              		.align	2
 298              	.LANCHOR1 = . + 0
 301              	arm_ist:
 302 0000 00000000 		.space	4
 305              	arm_referenz:
 306 0004 00000000 		.space	4
 307              		.text
 308              	.Letext0:
 309              		.file 2 "/usr/local/carlson-minot/crosscompilers/arm-none-linux-gnueabi/libc-2014.05-29-sysroot/us
 310              		.file 3 "/usr/local/carlson-minot/crosscompilers/lib/gcc/arm-none-linux-gnueabi/4.8.3/include/stdd
 311              		.file 4 "/usr/local/carlson-minot/crosscompilers/arm-none-linux-gnueabi/libc-2014.05-29-sysroot/us
 312              		.file 5 "lmstypes.h"
 313              		.file 6 "bytecodes.h"
 314              		.file 7 "lms2012.h"
 315              		.file 8 "../lms2012/c_output.h"
 316              		.file 9 "/usr/local/carlson-minot/crosscompilers/arm-none-linux-gnueabi/libc-2014.05-29-sysroot/us
 317              		.file 10 "/usr/local/carlson-minot/crosscompilers/arm-none-linux-gnueabi/libc-2014.05-29-sysroot/u