   1              		.arch armv5te
   2              		.fpu softvfp
   3              		.eabi_attribute 20, 1
   4              		.eabi_attribute 21, 1
   5              		.eabi_attribute 23, 3
   6              		.eabi_attribute 24, 1
   7              		.eabi_attribute 25, 1
   8              		.eabi_attribute 26, 2
   9              		.eabi_attribute 30, 1
  10              		.eabi_attribute 34, 0
  11              		.eabi_attribute 18, 4
  12              		.file	"OLL.c"
  13              		.text
  14              	.Ltext0:
  15              		.cfi_sections	.debug_frame
  16              		.align	2
  17              		.global	OLL
  19              	OLL:
  20              		.fnstart
  21              	.LFB11:
  22              		.file 1 "OLL.c"
   1:OLL.c         **** //
   2:OLL.c         **** //  OLL.c
   3:OLL.c         **** //  Cube3*3
   4:OLL.c         **** //
   5:OLL.c         **** //  Created by Ryoma on 09.12.15.
   6:OLL.c         **** //  Copyright © 2015 Chunxia Yang. All rights reserved.
   7:OLL.c         **** //
   8:OLL.c         **** 
   9:OLL.c         **** #include "OLL.h"
  10:OLL.c         **** #include "Color_search.h"
  11:OLL.c         **** #include "Side_dreh.h"
  12:OLL.c         **** #include "print_mode.h"
  13:OLL.c         **** 
  14:OLL.c         **** int OLL(){
  23              		.loc 1 14 0
  24              		.cfi_startproc
  25              		@ args = 0, pretend = 0, frame = 16
  26              		@ frame_needed = 0, uses_anonymous_args = 0
  27 0000 F0412DE9 		stmfd	sp!, {r4, r5, r6, r7, r8, lr}
  28              		.save {r4, r5, r6, r7, r8, lr}
  29              		.cfi_def_cfa_offset 24
  30              		.cfi_offset 4, -24
  31              		.cfi_offset 5, -20
  32              		.cfi_offset 6, -16
  33              		.cfi_offset 7, -12
  34              		.cfi_offset 8, -8
  35              		.cfi_offset 14, -4
  36              		.pad #16
  37 0004 10D04DE2 		sub	sp, sp, #16
  38              		.cfi_def_cfa_offset 40
  15:OLL.c         ****     change_topface(2);
  39              		.loc 1 15 0
  40 0008 0200A0E3 		mov	r0, #2
  41 000c FEFFFFEB 		bl	change_topface
  42              	.LVL0:
  16:OLL.c         ****     change_rightface(4);
  43              		.loc 1 16 0
  44 0010 0400A0E3 		mov	r0, #4
  45 0014 FEFFFFEB 		bl	change_rightface
  46              	.LVL1:
  17:OLL.c         ****     wuerfel_print(1);
  47              		.loc 1 17 0
  48 0018 0100A0E3 		mov	r0, #1
  49 001c FEFFFFEB 		bl	wuerfel_print
  50              	.LVL2:
  18:OLL.c         ****     if ((color_data[0][1]!=2)&&(color_data[0][3]!=2)&&(color_data[0][5]!=2)&&(color_data[0][7]!=2))
  51              		.loc 1 18 0
  52 0020 9C399FE5 		ldr	r3, .L30
  53 0024 0130D3E5 		ldrb	r3, [r3, #1]	@ zero_extendqisi2
  54 0028 020053E3 		cmp	r3, #2
  55 002c 2300000A 		beq	.L2
  56              		.loc 1 18 0 is_stmt 0 discriminator 1
  57 0030 8C399FE5 		ldr	r3, .L30
  58 0034 0330D3E5 		ldrb	r3, [r3, #3]	@ zero_extendqisi2
  59 0038 020053E3 		cmp	r3, #2
  60 003c 4500000A 		beq	.L18
  61 0040 7C399FE5 		ldr	r3, .L30
  62 0044 0530D3E5 		ldrb	r3, [r3, #5]	@ zero_extendqisi2
  63 0048 020053E3 		cmp	r3, #2
  64 004c 4100000A 		beq	.L18
  65 0050 6C399FE5 		ldr	r3, .L30
  66 0054 0730D3E5 		ldrb	r3, [r3, #7]	@ zero_extendqisi2
  67 0058 020053E3 		cmp	r3, #2
  68 005c 3D00000A 		beq	.L18
  19:OLL.c         ****     {
  20:OLL.c         ****         rs_dreh(-1, 90);
  69              		.loc 1 20 0 is_stmt 1
  70 0060 0000E0E3 		mvn	r0, #0
  71 0064 5A10A0E3 		mov	r1, #90
  72 0068 FEFFFFEB 		bl	rs_dreh
  73              	.LVL3:
  21:OLL.c         ****         fs_dreh(-1, 90);
  74              		.loc 1 21 0
  75 006c 0000E0E3 		mvn	r0, #0
  76 0070 5A10A0E3 		mov	r1, #90
  77 0074 FEFFFFEB 		bl	fs_dreh
  78              	.LVL4:
  22:OLL.c         ****         fs_dreh(-1, 90);
  79              		.loc 1 22 0
  80 0078 0000E0E3 		mvn	r0, #0
  81 007c 5A10A0E3 		mov	r1, #90
  82 0080 FEFFFFEB 		bl	fs_dreh
  83              	.LVL5:
  23:OLL.c         ****         rs_dreh(1, 90);
  84              		.loc 1 23 0
  85 0084 0100A0E3 		mov	r0, #1
  86 0088 5A10A0E3 		mov	r1, #90
  87 008c FEFFFFEB 		bl	rs_dreh
  88              	.LVL6:
  24:OLL.c         ****         ls_dreh(1, 90);
  89              		.loc 1 24 0
  90 0090 0100A0E3 		mov	r0, #1
  91 0094 5A10A0E3 		mov	r1, #90
  92 0098 FEFFFFEB 		bl	ls_dreh
  93              	.LVL7:
  25:OLL.c         ****         fs_dreh(1, 90);
  94              		.loc 1 25 0
  95 009c 0100A0E3 		mov	r0, #1
  96 00a0 5A10A0E3 		mov	r1, #90
  97 00a4 FEFFFFEB 		bl	fs_dreh
  98              	.LVL8:
  26:OLL.c         ****         change_topface(2);
  99              		.loc 1 26 0
 100 00a8 0200A0E3 		mov	r0, #2
 101 00ac FEFFFFEB 		bl	change_topface
 102              	.LVL9:
  27:OLL.c         ****     }
  28:OLL.c         ****         if((color_data[0][1]==2)&&(color_data[0][3]!=2)&&(color_data[0][5]!=2)&&(color_data[0][7]==
 103              		.loc 1 28 0
 104 00b0 0C399FE5 		ldr	r3, .L30
 105 00b4 0130D3E5 		ldrb	r3, [r3, #1]	@ zero_extendqisi2
 106 00b8 020053E3 		cmp	r3, #2
 107 00bc 2500001A 		bne	.L18
 108              	.L2:
 109              		.loc 1 28 0 is_stmt 0 discriminator 1
 110 00c0 FC389FE5 		ldr	r3, .L30
 111 00c4 0330D3E5 		ldrb	r3, [r3, #3]	@ zero_extendqisi2
 112 00c8 020053E3 		cmp	r3, #2
 113 00cc 4700000A 		beq	.L19
 114 00d0 EC389FE5 		ldr	r3, .L30
 115 00d4 0530D3E5 		ldrb	r3, [r3, #5]	@ zero_extendqisi2
 116 00d8 020053E3 		cmp	r3, #2
 117 00dc 4300000A 		beq	.L19
 118 00e0 DC389FE5 		ldr	r3, .L30
 119 00e4 0730D3E5 		ldrb	r3, [r3, #7]	@ zero_extendqisi2
 120 00e8 020053E3 		cmp	r3, #2
 121 00ec 3F00001A 		bne	.L19
  29:OLL.c         ****         {
  30:OLL.c         ****             wuerfel_print(1);
 122              		.loc 1 30 0 is_stmt 1
 123 00f0 0100A0E3 		mov	r0, #1
 124 00f4 FEFFFFEB 		bl	wuerfel_print
 125              	.LVL10:
  31:OLL.c         ****             rs_dreh(-1, 90);
 126              		.loc 1 31 0
 127 00f8 0000E0E3 		mvn	r0, #0
 128 00fc 5A10A0E3 		mov	r1, #90
 129 0100 FEFFFFEB 		bl	rs_dreh
 130              	.LVL11:
  32:OLL.c         ****             fs_dreh(-1, 90);
 131              		.loc 1 32 0
 132 0104 0000E0E3 		mvn	r0, #0
 133 0108 5A10A0E3 		mov	r1, #90
 134 010c FEFFFFEB 		bl	fs_dreh
 135              	.LVL12:
  33:OLL.c         ****             fs_dreh(-1, 90);
 136              		.loc 1 33 0
 137 0110 0000E0E3 		mvn	r0, #0
 138 0114 5A10A0E3 		mov	r1, #90
 139 0118 FEFFFFEB 		bl	fs_dreh
 140              	.LVL13:
  34:OLL.c         ****             rs_dreh(1, 90);
 141              		.loc 1 34 0
 142 011c 0100A0E3 		mov	r0, #1
 143 0120 5A10A0E3 		mov	r1, #90
 144 0124 FEFFFFEB 		bl	rs_dreh
 145              	.LVL14:
  35:OLL.c         ****             ls_dreh(1, 90);
 146              		.loc 1 35 0
 147 0128 0100A0E3 		mov	r0, #1
 148 012c 5A10A0E3 		mov	r1, #90
 149 0130 FEFFFFEB 		bl	ls_dreh
 150              	.LVL15:
  36:OLL.c         ****             fs_dreh(1, 90);
 151              		.loc 1 36 0
 152 0134 0100A0E3 		mov	r0, #1
 153 0138 5A10A0E3 		mov	r1, #90
 154 013c FEFFFFEB 		bl	fs_dreh
 155              	.LVL16:
  37:OLL.c         ****             change_topface(2);
 156              		.loc 1 37 0
 157 0140 0200A0E3 		mov	r0, #2
 158 0144 FEFFFFEB 		bl	change_topface
 159              	.LVL17:
  38:OLL.c         ****         }
  39:OLL.c         ****         if ((color_data[0][1]!=2)&&(color_data[0][3]==2)&&(color_data[0][5]==2)&&(color_data[0][7]!
 160              		.loc 1 39 0
 161 0148 74389FE5 		ldr	r3, .L30
 162 014c 0130D3E5 		ldrb	r3, [r3, #1]	@ zero_extendqisi2
 163 0150 020053E3 		cmp	r3, #2
 164 0154 2500000A 		beq	.L19
 165              	.L18:
 166              		.loc 1 39 0 is_stmt 0 discriminator 1
 167 0158 64389FE5 		ldr	r3, .L30
 168 015c 0330D3E5 		ldrb	r3, [r3, #3]	@ zero_extendqisi2
 169 0160 020053E3 		cmp	r3, #2
 170 0164 4500001A 		bne	.L20
 171 0168 54389FE5 		ldr	r3, .L30
 172 016c 0530D3E5 		ldrb	r3, [r3, #5]	@ zero_extendqisi2
 173 0170 020053E3 		cmp	r3, #2
 174 0174 4100001A 		bne	.L20
 175 0178 44389FE5 		ldr	r3, .L30
 176 017c 0730D3E5 		ldrb	r3, [r3, #7]	@ zero_extendqisi2
 177 0180 020053E3 		cmp	r3, #2
 178 0184 3D00000A 		beq	.L20
  40:OLL.c         ****         {
  41:OLL.c         ****             drehen(-1);
 179              		.loc 1 41 0 is_stmt 1
 180 0188 0000E0E3 		mvn	r0, #0
 181 018c FEFFFFEB 		bl	drehen
 182              	.LVL18:
  42:OLL.c         ****             rs_dreh(-1, 90);
 183              		.loc 1 42 0
 184 0190 0000E0E3 		mvn	r0, #0
 185 0194 5A10A0E3 		mov	r1, #90
 186 0198 FEFFFFEB 		bl	rs_dreh
 187              	.LVL19:
  43:OLL.c         ****             fs_dreh(-1, 90);
 188              		.loc 1 43 0
 189 019c 0000E0E3 		mvn	r0, #0
 190 01a0 5A10A0E3 		mov	r1, #90
 191 01a4 FEFFFFEB 		bl	fs_dreh
 192              	.LVL20:
  44:OLL.c         ****             fs_dreh(-1, 90);
 193              		.loc 1 44 0
 194 01a8 0000E0E3 		mvn	r0, #0
 195 01ac 5A10A0E3 		mov	r1, #90
 196 01b0 FEFFFFEB 		bl	fs_dreh
 197              	.LVL21:
  45:OLL.c         ****             rs_dreh(1, 90);
 198              		.loc 1 45 0
 199 01b4 0100A0E3 		mov	r0, #1
 200 01b8 5A10A0E3 		mov	r1, #90
 201 01bc FEFFFFEB 		bl	rs_dreh
 202              	.LVL22:
  46:OLL.c         ****             ls_dreh(1, 90);
 203              		.loc 1 46 0
 204 01c0 0100A0E3 		mov	r0, #1
 205 01c4 5A10A0E3 		mov	r1, #90
 206 01c8 FEFFFFEB 		bl	ls_dreh
 207              	.LVL23:
  47:OLL.c         ****             fs_dreh(1, 90);
 208              		.loc 1 47 0
 209 01cc 0100A0E3 		mov	r0, #1
 210 01d0 5A10A0E3 		mov	r1, #90
 211 01d4 FEFFFFEB 		bl	fs_dreh
 212              	.LVL24:
  48:OLL.c         ****             change_topface(2);
 213              		.loc 1 48 0
 214 01d8 0200A0E3 		mov	r0, #2
 215 01dc FEFFFFEB 		bl	change_topface
 216              	.LVL25:
  49:OLL.c         ****         }
  50:OLL.c         ****         if ((color_data[0][1]==2)&&(color_data[0][3]==2)&&(color_data[0][5]!=2)&&(color_data[0][7]!
 217              		.loc 1 50 0
 218 01e0 DC379FE5 		ldr	r3, .L30
 219 01e4 0130D3E5 		ldrb	r3, [r3, #1]	@ zero_extendqisi2
 220 01e8 020053E3 		cmp	r3, #2
 221 01ec 2300001A 		bne	.L20
 222              	.L19:
 223              		.loc 1 50 0 is_stmt 0 discriminator 1
 224 01f0 CC379FE5 		ldr	r3, .L30
 225 01f4 0330D3E5 		ldrb	r3, [r3, #3]	@ zero_extendqisi2
 226 01f8 020053E3 		cmp	r3, #2
 227 01fc 4500001A 		bne	.L21
 228 0200 BC379FE5 		ldr	r3, .L30
 229 0204 0530D3E5 		ldrb	r3, [r3, #5]	@ zero_extendqisi2
 230 0208 020053E3 		cmp	r3, #2
 231 020c 4100000A 		beq	.L21
 232 0210 AC379FE5 		ldr	r3, .L30
 233 0214 0730D3E5 		ldrb	r3, [r3, #7]	@ zero_extendqisi2
 234 0218 020053E3 		cmp	r3, #2
 235 021c 3D00000A 		beq	.L21
  51:OLL.c         ****         {
  52:OLL.c         ****             rs_dreh(-1, 90);
 236              		.loc 1 52 0 is_stmt 1
 237 0220 0000E0E3 		mvn	r0, #0
 238 0224 5A10A0E3 		mov	r1, #90
 239 0228 FEFFFFEB 		bl	rs_dreh
 240              	.LVL26:
  53:OLL.c         ****             rs_dreh(-1, 90);
 241              		.loc 1 53 0
 242 022c 0000E0E3 		mvn	r0, #0
 243 0230 5A10A0E3 		mov	r1, #90
 244 0234 FEFFFFEB 		bl	rs_dreh
 245              	.LVL27:
  54:OLL.c         ****             fs_dreh(-1, 90);
 246              		.loc 1 54 0
 247 0238 0000E0E3 		mvn	r0, #0
 248 023c 5A10A0E3 		mov	r1, #90
 249 0240 FEFFFFEB 		bl	fs_dreh
 250              	.LVL28:
  55:OLL.c         ****             rs_dreh(1, 90);
 251              		.loc 1 55 0
 252 0244 0100A0E3 		mov	r0, #1
 253 0248 5A10A0E3 		mov	r1, #90
 254 024c FEFFFFEB 		bl	rs_dreh
 255              	.LVL29:
  56:OLL.c         ****             ls_dreh(1, 90);
 256              		.loc 1 56 0
 257 0250 0100A0E3 		mov	r0, #1
 258 0254 5A10A0E3 		mov	r1, #90
 259 0258 FEFFFFEB 		bl	ls_dreh
 260              	.LVL30:
  57:OLL.c         ****             bs_dreh(1, 90);
 261              		.loc 1 57 0
 262 025c 0100A0E3 		mov	r0, #1
 263 0260 5A10A0E3 		mov	r1, #90
 264 0264 FEFFFFEB 		bl	bs_dreh
 265              	.LVL31:
  58:OLL.c         ****             change_topface(2);
 266              		.loc 1 58 0
 267 0268 0200A0E3 		mov	r0, #2
 268 026c FEFFFFEB 		bl	change_topface
 269              	.LVL32:
  59:OLL.c         ****         }
  60:OLL.c         ****         if((color_data[0][1]!=2)&&(color_data[0][3]==2)&&(color_data[0][5]!=2)&&(color_data[0][7]==
 270              		.loc 1 60 0
 271 0270 4C379FE5 		ldr	r3, .L30
 272 0274 0130D3E5 		ldrb	r3, [r3, #1]	@ zero_extendqisi2
 273 0278 020053E3 		cmp	r3, #2
 274 027c 2500000A 		beq	.L21
 275              	.L20:
 276              		.loc 1 60 0 is_stmt 0 discriminator 1
 277 0280 3C379FE5 		ldr	r3, .L30
 278 0284 0330D3E5 		ldrb	r3, [r3, #3]	@ zero_extendqisi2
 279 0288 020053E3 		cmp	r3, #2
 280 028c 4700001A 		bne	.L22
 281 0290 2C379FE5 		ldr	r3, .L30
 282 0294 0530D3E5 		ldrb	r3, [r3, #5]	@ zero_extendqisi2
 283 0298 020053E3 		cmp	r3, #2
 284 029c 4300000A 		beq	.L22
 285 02a0 1C379FE5 		ldr	r3, .L30
 286 02a4 0730D3E5 		ldrb	r3, [r3, #7]	@ zero_extendqisi2
 287 02a8 020053E3 		cmp	r3, #2
 288 02ac 3F00001A 		bne	.L22
  61:OLL.c         ****         {
  62:OLL.c         ****             drehen(1);
 289              		.loc 1 62 0 is_stmt 1
 290 02b0 0100A0E3 		mov	r0, #1
 291 02b4 FEFFFFEB 		bl	drehen
 292              	.LVL33:
  63:OLL.c         ****             rs_dreh(-1, 90);
 293              		.loc 1 63 0
 294 02b8 0000E0E3 		mvn	r0, #0
 295 02bc 5A10A0E3 		mov	r1, #90
 296 02c0 FEFFFFEB 		bl	rs_dreh
 297              	.LVL34:
  64:OLL.c         ****             rs_dreh(-1, 90);
 298              		.loc 1 64 0
 299 02c4 0000E0E3 		mvn	r0, #0
 300 02c8 5A10A0E3 		mov	r1, #90
 301 02cc FEFFFFEB 		bl	rs_dreh
 302              	.LVL35:
  65:OLL.c         ****             fs_dreh(-1, 90);
 303              		.loc 1 65 0
 304 02d0 0000E0E3 		mvn	r0, #0
 305 02d4 5A10A0E3 		mov	r1, #90
 306 02d8 FEFFFFEB 		bl	fs_dreh
 307              	.LVL36:
  66:OLL.c         ****             rs_dreh(1, 90);
 308              		.loc 1 66 0
 309 02dc 0100A0E3 		mov	r0, #1
 310 02e0 5A10A0E3 		mov	r1, #90
 311 02e4 FEFFFFEB 		bl	rs_dreh
 312              	.LVL37:
  67:OLL.c         ****             ls_dreh(1, 90);
 313              		.loc 1 67 0
 314 02e8 0100A0E3 		mov	r0, #1
 315 02ec 5A10A0E3 		mov	r1, #90
 316 02f0 FEFFFFEB 		bl	ls_dreh
 317              	.LVL38:
  68:OLL.c         ****             bs_dreh(1, 90);
 318              		.loc 1 68 0
 319 02f4 0100A0E3 		mov	r0, #1
 320 02f8 5A10A0E3 		mov	r1, #90
 321 02fc FEFFFFEB 		bl	bs_dreh
 322              	.LVL39:
  69:OLL.c         ****             change_topface(2);
 323              		.loc 1 69 0
 324 0300 0200A0E3 		mov	r0, #2
 325 0304 FEFFFFEB 		bl	change_topface
 326              	.LVL40:
  70:OLL.c         ****         }
  71:OLL.c         ****         if((color_data[0][1]==2)&&(color_data[0][3]!=2)&&(color_data[0][5]==2)&&(color_data[0][7]!=
 327              		.loc 1 71 0
 328 0308 B4369FE5 		ldr	r3, .L30
 329 030c 0130D3E5 		ldrb	r3, [r3, #1]	@ zero_extendqisi2
 330 0310 020053E3 		cmp	r3, #2
 331 0314 2500001A 		bne	.L22
 332              	.L21:
 333              		.loc 1 71 0 is_stmt 0 discriminator 1
 334 0318 A4369FE5 		ldr	r3, .L30
 335 031c 0330D3E5 		ldrb	r3, [r3, #3]	@ zero_extendqisi2
 336 0320 020053E3 		cmp	r3, #2
 337 0324 4500000A 		beq	.L8
 338 0328 94369FE5 		ldr	r3, .L30
 339 032c 0530D3E5 		ldrb	r3, [r3, #5]	@ zero_extendqisi2
 340 0330 020053E3 		cmp	r3, #2
 341 0334 4100001A 		bne	.L8
 342 0338 84369FE5 		ldr	r3, .L30
 343 033c 0730D3E5 		ldrb	r3, [r3, #7]	@ zero_extendqisi2
 344 0340 020053E3 		cmp	r3, #2
 345 0344 3D00000A 		beq	.L8
  72:OLL.c         ****         {
  73:OLL.c         ****             drehen(-1);            
 346              		.loc 1 73 0 is_stmt 1
 347 0348 0000E0E3 		mvn	r0, #0
 348 034c FEFFFFEB 		bl	drehen
 349              	.LVL41:
  74:OLL.c         ****             rs_dreh(-1, 90);
 350              		.loc 1 74 0
 351 0350 0000E0E3 		mvn	r0, #0
 352 0354 5A10A0E3 		mov	r1, #90
 353 0358 FEFFFFEB 		bl	rs_dreh
 354              	.LVL42:
  75:OLL.c         ****             rs_dreh(-1, 90);
 355              		.loc 1 75 0
 356 035c 0000E0E3 		mvn	r0, #0
 357 0360 5A10A0E3 		mov	r1, #90
 358 0364 FEFFFFEB 		bl	rs_dreh
 359              	.LVL43:
  76:OLL.c         ****             fs_dreh(-1, 90);
 360              		.loc 1 76 0
 361 0368 0000E0E3 		mvn	r0, #0
 362 036c 5A10A0E3 		mov	r1, #90
 363 0370 FEFFFFEB 		bl	fs_dreh
 364              	.LVL44:
  77:OLL.c         ****             rs_dreh(1, 90);
 365              		.loc 1 77 0
 366 0374 0100A0E3 		mov	r0, #1
 367 0378 5A10A0E3 		mov	r1, #90
 368 037c FEFFFFEB 		bl	rs_dreh
 369              	.LVL45:
  78:OLL.c         ****             ls_dreh(1, 90);
 370              		.loc 1 78 0
 371 0380 0100A0E3 		mov	r0, #1
 372 0384 5A10A0E3 		mov	r1, #90
 373 0388 FEFFFFEB 		bl	ls_dreh
 374              	.LVL46:
  79:OLL.c         ****             bs_dreh(1, 90);
 375              		.loc 1 79 0
 376 038c 0100A0E3 		mov	r0, #1
 377 0390 5A10A0E3 		mov	r1, #90
 378 0394 FEFFFFEB 		bl	bs_dreh
 379              	.LVL47:
  80:OLL.c         ****             change_topface(2);
 380              		.loc 1 80 0
 381 0398 0200A0E3 		mov	r0, #2
 382 039c FEFFFFEB 		bl	change_topface
 383              	.LVL48:
  81:OLL.c         ****         }
  82:OLL.c         ****         if((color_data[0][1]!=2)&&(color_data[0][3]!=2)&&(color_data[0][5]==2)&&(color_data[0][7]==
 384              		.loc 1 82 0
 385 03a0 1C369FE5 		ldr	r3, .L30
 386 03a4 0130D3E5 		ldrb	r3, [r3, #1]	@ zero_extendqisi2
 387 03a8 020053E3 		cmp	r3, #2
 388 03ac 2300000A 		beq	.L8
 389              	.L22:
 390              		.loc 1 82 0 is_stmt 0 discriminator 1
 391 03b0 0C369FE5 		ldr	r3, .L30
 392 03b4 0330D3E5 		ldrb	r3, [r3, #3]	@ zero_extendqisi2
 393 03b8 020053E3 		cmp	r3, #2
 394 03bc 1F00000A 		beq	.L8
 395 03c0 FC359FE5 		ldr	r3, .L30
 396 03c4 0530D3E5 		ldrb	r3, [r3, #5]	@ zero_extendqisi2
 397 03c8 020053E3 		cmp	r3, #2
 398 03cc 1B00001A 		bne	.L8
 399 03d0 EC359FE5 		ldr	r3, .L30
 400 03d4 0730D3E5 		ldrb	r3, [r3, #7]	@ zero_extendqisi2
 401 03d8 020053E3 		cmp	r3, #2
 402 03dc 1700001A 		bne	.L8
  83:OLL.c         ****         {
  84:OLL.c         ****             drehen(1);
 403              		.loc 1 84 0 is_stmt 1
 404 03e0 0100A0E3 		mov	r0, #1
 405 03e4 FEFFFFEB 		bl	drehen
 406              	.LVL49:
  85:OLL.c         ****             drehen(1);
 407              		.loc 1 85 0
 408 03e8 0100A0E3 		mov	r0, #1
 409 03ec FEFFFFEB 		bl	drehen
 410              	.LVL50:
  86:OLL.c         ****             rs_dreh(-1, 90);
 411              		.loc 1 86 0
 412 03f0 0000E0E3 		mvn	r0, #0
 413 03f4 5A10A0E3 		mov	r1, #90
 414 03f8 FEFFFFEB 		bl	rs_dreh
 415              	.LVL51:
  87:OLL.c         ****             rs_dreh(-1, 90);
 416              		.loc 1 87 0
 417 03fc 0000E0E3 		mvn	r0, #0
 418 0400 5A10A0E3 		mov	r1, #90
 419 0404 FEFFFFEB 		bl	rs_dreh
 420              	.LVL52:
  88:OLL.c         ****             fs_dreh(-1, 90);
 421              		.loc 1 88 0
 422 0408 0000E0E3 		mvn	r0, #0
 423 040c 5A10A0E3 		mov	r1, #90
 424 0410 FEFFFFEB 		bl	fs_dreh
 425              	.LVL53:
  89:OLL.c         ****             rs_dreh(1, 90);
 426              		.loc 1 89 0
 427 0414 0100A0E3 		mov	r0, #1
 428 0418 5A10A0E3 		mov	r1, #90
 429 041c FEFFFFEB 		bl	rs_dreh
 430              	.LVL54:
  90:OLL.c         ****             ls_dreh(1, 90);
 431              		.loc 1 90 0
 432 0420 0100A0E3 		mov	r0, #1
 433 0424 5A10A0E3 		mov	r1, #90
 434 0428 FEFFFFEB 		bl	ls_dreh
 435              	.LVL55:
  91:OLL.c         ****             bs_dreh(1, 90);
 436              		.loc 1 91 0
 437 042c 0100A0E3 		mov	r0, #1
 438 0430 5A10A0E3 		mov	r1, #90
 439 0434 FEFFFFEB 		bl	bs_dreh
 440              	.LVL56:
  92:OLL.c         ****             change_topface(2);
 441              		.loc 1 92 0
 442 0438 0200A0E3 		mov	r0, #2
 443 043c FEFFFFEB 		bl	change_topface
 444              	.LVL57:
 445              	.L8:
  93:OLL.c         ****         }
  94:OLL.c         ****     
  95:OLL.c         ****     int color_kanten[]={1,5,3,4};
 446              		.loc 1 95 0
 447 0440 80359FE5 		ldr	r3, .L30+4
 448 0444 0F0093E8 		ldmia	r3, {r0, r1, r2, r3}
 449 0448 10C08DE2 		add	ip, sp, #16
 450 044c 0F000CE9 		stmdb	ip, {r0, r1, r2, r3}
 451              	.LVL58:
 452 0450 04404DE2 		sub	r4, sp, #4
 453 0454 0C808DE2 		add	r8, sp, #12
  96:OLL.c         ****     // durch Formular
  97:OLL.c         ****     int i;
  98:OLL.c         ****     for(i=0;i<=3;i++){
  99:OLL.c         ****         
 100:OLL.c         ****         change_topface(2);
 454              		.loc 1 100 0
 455 0458 0270A0E3 		mov	r7, #2
 101:OLL.c         ****         change_rightface(color_kanten[i]);
 102:OLL.c         ****         wuerfel_print(1);
 456              		.loc 1 102 0
 457 045c 0160A0E3 		mov	r6, #1
 103:OLL.c         ****         
 104:OLL.c         ****         if((color_data[0][1]==2)&&(color_data[0][3]==2)&&(color_data[0][5]==2)&&(color_data[0][7]==
 458              		.loc 1 104 0
 459 0460 5C559FE5 		ldr	r5, .L30
 460              	.LVL59:
 461              	.L17:
 100:OLL.c         ****         change_rightface(color_kanten[i]);
 462              		.loc 1 100 0
 463 0464 0700A0E1 		mov	r0, r7
 464 0468 FEFFFFEB 		bl	change_topface
 465              	.LVL60:
 101:OLL.c         ****         change_rightface(color_kanten[i]);
 466              		.loc 1 101 0
 467 046c 0400B4E5 		ldr	r0, [r4, #4]!
 468 0470 FEFFFFEB 		bl	change_rightface
 469              	.LVL61:
 102:OLL.c         ****         
 470              		.loc 1 102 0
 471 0474 0600A0E1 		mov	r0, r6
 472 0478 FEFFFFEB 		bl	wuerfel_print
 473              	.LVL62:
 474              		.loc 1 104 0
 475 047c 0130D5E5 		ldrb	r3, [r5, #1]	@ zero_extendqisi2
 476 0480 020053E3 		cmp	r3, #2
 477 0484 3501001A 		bne	.L9
 478              		.loc 1 104 0 is_stmt 0 discriminator 1
 479 0488 0330D5E5 		ldrb	r3, [r5, #3]	@ zero_extendqisi2
 480 048c 020053E3 		cmp	r3, #2
 481 0490 3201001A 		bne	.L9
 482 0494 0530D5E5 		ldrb	r3, [r5, #5]	@ zero_extendqisi2
 483 0498 020053E3 		cmp	r3, #2
 484 049c 3201001A 		bne	.L10
 485 04a0 0730D5E5 		ldrb	r3, [r5, #7]	@ zero_extendqisi2
 486 04a4 020053E3 		cmp	r3, #2
 487 04a8 2F01001A 		bne	.L10
 488 04ac 0930D5E5 		ldrb	r3, [r5, #9]	@ zero_extendqisi2
 489 04b0 020053E3 		cmp	r3, #2
 490 04b4 2C01001A 		bne	.L10
 491 04b8 0B30D5E5 		ldrb	r3, [r5, #11]	@ zero_extendqisi2
 492 04bc 020053E3 		cmp	r3, #2
 493 04c0 2901001A 		bne	.L10
 494 04c4 2130D5E5 		ldrb	r3, [r5, #33]	@ zero_extendqisi2
 495 04c8 020053E3 		cmp	r3, #2
 496 04cc 2601001A 		bne	.L10
 497 04d0 2330D5E5 		ldrb	r3, [r5, #35]	@ zero_extendqisi2
 498 04d4 020053E3 		cmp	r3, #2
 499 04d8 2301001A 		bne	.L10
 105:OLL.c         ****         {
 106:OLL.c         ****             rs_dreh(1, 90);
 500              		.loc 1 106 0 is_stmt 1
 501 04dc 0100A0E3 		mov	r0, #1
 502 04e0 5A10A0E3 		mov	r1, #90
 503 04e4 FEFFFFEB 		bl	rs_dreh
 504              	.LVL63:
 107:OLL.c         ****             rs_dreh(1, 90);
 505              		.loc 1 107 0
 506 04e8 0100A0E3 		mov	r0, #1
 507 04ec 5A10A0E3 		mov	r1, #90
 508 04f0 FEFFFFEB 		bl	rs_dreh
 509              	.LVL64:
 108:OLL.c         ****             ds_dreh(1, 90);
 510              		.loc 1 108 0
 511 04f4 0100A0E3 		mov	r0, #1
 512 04f8 5A10A0E3 		mov	r1, #90
 513 04fc FEFFFFEB 		bl	ds_dreh
 514              	.LVL65:
 109:OLL.c         ****             ls_dreh(-1, 90);
 515              		.loc 1 109 0
 516 0500 0000E0E3 		mvn	r0, #0
 517 0504 5A10A0E3 		mov	r1, #90
 518 0508 FEFFFFEB 		bl	ls_dreh
 519              	.LVL66:
 110:OLL.c         ****             rs_dreh(-1, 90);
 520              		.loc 1 110 0
 521 050c 0000E0E3 		mvn	r0, #0
 522 0510 5A10A0E3 		mov	r1, #90
 523 0514 FEFFFFEB 		bl	rs_dreh
 524              	.LVL67:
 111:OLL.c         ****             ls_dreh(1, 90);
 525              		.loc 1 111 0
 526 0518 0100A0E3 		mov	r0, #1
 527 051c 5A10A0E3 		mov	r1, #90
 528 0520 FEFFFFEB 		bl	ls_dreh
 529              	.LVL68:
 112:OLL.c         ****             rs_dreh(1, 90);
 530              		.loc 1 112 0
 531 0524 0100A0E3 		mov	r0, #1
 532 0528 5A10A0E3 		mov	r1, #90
 533 052c FEFFFFEB 		bl	rs_dreh
 534              	.LVL69:
 113:OLL.c         ****             ls_dreh(-1, 90);
 535              		.loc 1 113 0
 536 0530 0000E0E3 		mvn	r0, #0
 537 0534 5A10A0E3 		mov	r1, #90
 538 0538 FEFFFFEB 		bl	ls_dreh
 539              	.LVL70:
 114:OLL.c         ****             rs_dreh(-1, 90);
 540              		.loc 1 114 0
 541 053c 0000E0E3 		mvn	r0, #0
 542 0540 5A10A0E3 		mov	r1, #90
 543 0544 FEFFFFEB 		bl	rs_dreh
 544              	.LVL71:
 115:OLL.c         ****             ls_dreh(1, 90);
 545              		.loc 1 115 0
 546 0548 0100A0E3 		mov	r0, #1
 547 054c 5A10A0E3 		mov	r1, #90
 548 0550 FEFFFFEB 		bl	ls_dreh
 549              	.LVL72:
 116:OLL.c         ****             rs_dreh(-1, 90);
 550              		.loc 1 116 0
 551 0554 0000E0E3 		mvn	r0, #0
 552 0558 5A10A0E3 		mov	r1, #90
 553 055c FEFFFFEB 		bl	rs_dreh
 554              	.LVL73:
 117:OLL.c         ****             ls_dreh(-1, 90);
 555              		.loc 1 117 0
 556 0560 0000E0E3 		mvn	r0, #0
 557 0564 5A10A0E3 		mov	r1, #90
 558 0568 FEFFFFEB 		bl	ls_dreh
 559              	.LVL74:
 118:OLL.c         ****             goto fertig;
 560              		.loc 1 118 0
 561 056c 110100EA 		b	.L29
 562              	.L23:
 119:OLL.c         ****         }
 120:OLL.c         ****         if ((color_data[0][1]==2)&&(color_data[0][3]==2)&&(color_data[0][5]==2)&&(color_data[0][7]=
 563              		.loc 1 120 0 discriminator 1
 564 0570 0730D5E5 		ldrb	r3, [r5, #7]	@ zero_extendqisi2
 565 0574 020053E3 		cmp	r3, #2
 566 0578 FE00001A 		bne	.L12
 567 057c 2A30D5E5 		ldrb	r3, [r5, #42]	@ zero_extendqisi2
 568 0580 020053E3 		cmp	r3, #2
 569 0584 FB00001A 		bne	.L12
 570 0588 2C30D5E5 		ldrb	r3, [r5, #44]	@ zero_extendqisi2
 571 058c 020053E3 		cmp	r3, #2
 572 0590 F800001A 		bne	.L12
 573 0594 2330D5E5 		ldrb	r3, [r5, #35]	@ zero_extendqisi2
 574 0598 020053E3 		cmp	r3, #2
 575 059c F500001A 		bne	.L12
 576 05a0 0B30D5E5 		ldrb	r3, [r5, #11]	@ zero_extendqisi2
 577 05a4 020053E3 		cmp	r3, #2
 578 05a8 F200001A 		bne	.L12
 121:OLL.c         ****         {
 122:OLL.c         ****             rs_dreh(1, 90);
 579              		.loc 1 122 0
 580 05ac 0100A0E3 		mov	r0, #1
 581 05b0 5A10A0E3 		mov	r1, #90
 582 05b4 FEFFFFEB 		bl	rs_dreh
 583              	.LVL75:
 123:OLL.c         ****             rs_dreh(-1, 90);
 584              		.loc 1 123 0
 585 05b8 0000E0E3 		mvn	r0, #0
 586 05bc 5A10A0E3 		mov	r1, #90
 587 05c0 FEFFFFEB 		bl	rs_dreh
 588              	.LVL76:
 124:OLL.c         ****             ds_dreh(-1, 90);
 589              		.loc 1 124 0
 590 05c4 0000E0E3 		mvn	r0, #0
 591 05c8 5A10A0E3 		mov	r1, #90
 592 05cc FEFFFFEB 		bl	ds_dreh
 593              	.LVL77:
 125:OLL.c         ****             ls_dreh(-1, 180);
 594              		.loc 1 125 0
 595 05d0 0000E0E3 		mvn	r0, #0
 596 05d4 B410A0E3 		mov	r1, #180
 597 05d8 FEFFFFEB 		bl	ls_dreh
 598              	.LVL78:
 126:OLL.c         ****             rs_dreh(-1, 90);
 599              		.loc 1 126 0
 600 05dc 0000E0E3 		mvn	r0, #0
 601 05e0 5A10A0E3 		mov	r1, #90
 602 05e4 FEFFFFEB 		bl	rs_dreh
 603              	.LVL79:
 127:OLL.c         ****             ls_dreh(1, 180);
 604              		.loc 1 127 0
 605 05e8 0100A0E3 		mov	r0, #1
 606 05ec B410A0E3 		mov	r1, #180
 607 05f0 FEFFFFEB 		bl	ls_dreh
 608              	.LVL80:
 128:OLL.c         ****             rs_dreh(-1, 90);
 609              		.loc 1 128 0
 610 05f4 0000E0E3 		mvn	r0, #0
 611 05f8 5A10A0E3 		mov	r1, #90
 612 05fc FEFFFFEB 		bl	rs_dreh
 613              	.LVL81:
 129:OLL.c         ****             ls_dreh(-1, 180);
 614              		.loc 1 129 0
 615 0600 0000E0E3 		mvn	r0, #0
 616 0604 B410A0E3 		mov	r1, #180
 617 0608 FEFFFFEB 		bl	ls_dreh
 618              	.LVL82:
 130:OLL.c         ****             rs_dreh(1, 180);
 619              		.loc 1 130 0
 620 060c 0100A0E3 		mov	r0, #1
 621 0610 B410A0E3 		mov	r1, #180
 622 0614 FEFFFFEB 		bl	rs_dreh
 623              	.LVL83:
 131:OLL.c         ****             ls_dreh(1, 90);
 624              		.loc 1 131 0
 625 0618 0100A0E3 		mov	r0, #1
 626 061c 5A10A0E3 		mov	r1, #90
 627 0620 FEFFFFEB 		bl	ls_dreh
 628              	.LVL84:
 132:OLL.c         ****             goto fertig;
 629              		.loc 1 132 0
 630 0624 E30000EA 		b	.L29
 631              	.L24:
 133:OLL.c         ****         }
 134:OLL.c         ****         if ((color_data[0][1]==2)&&(color_data[0][3]==2)&&(color_data[0][5]==2)&&(color_data[0][7]=
 632              		.loc 1 134 0 discriminator 1
 633 0628 0730D5E5 		ldrb	r3, [r5, #7]	@ zero_extendqisi2
 634 062c 020053E3 		cmp	r3, #2
 635 0630 D300001A 		bne	.L13
 636 0634 0630D5E5 		ldrb	r3, [r5, #6]	@ zero_extendqisi2
 637 0638 020053E3 		cmp	r3, #2
 638 063c D000001A 		bne	.L13
 639 0640 0830D5E5 		ldrb	r3, [r5, #8]	@ zero_extendqisi2
 640 0644 020053E3 		cmp	r3, #2
 641 0648 CD00001A 		bne	.L13
 642 064c 2130D5E5 		ldrb	r3, [r5, #33]	@ zero_extendqisi2
 643 0650 020053E3 		cmp	r3, #2
 644 0654 CA00001A 		bne	.L13
 645 0658 2330D5E5 		ldrb	r3, [r5, #35]	@ zero_extendqisi2
 646 065c 020053E3 		cmp	r3, #2
 647 0660 C700001A 		bne	.L13
 135:OLL.c         ****         {
 136:OLL.c         ****             rs_dreh(1, 180);
 648              		.loc 1 136 0
 649 0664 0100A0E3 		mov	r0, #1
 650 0668 B410A0E3 		mov	r1, #180
 651 066c FEFFFFEB 		bl	rs_dreh
 652              	.LVL85:
 137:OLL.c         ****             ls_dreh(-1, 90);
 653              		.loc 1 137 0
 654 0670 0000E0E3 		mvn	r0, #0
 655 0674 5A10A0E3 		mov	r1, #90
 656 0678 FEFFFFEB 		bl	ls_dreh
 657              	.LVL86:
 138:OLL.c         ****             rs_dreh(1, 90);
 658              		.loc 1 138 0
 659 067c 0100A0E3 		mov	r0, #1
 660 0680 5A10A0E3 		mov	r1, #90
 661 0684 FEFFFFEB 		bl	rs_dreh
 662              	.LVL87:
 139:OLL.c         ****             rs_dreh(-1, 90);
 663              		.loc 1 139 0
 664 0688 0000E0E3 		mvn	r0, #0
 665 068c 5A10A0E3 		mov	r1, #90
 666 0690 FEFFFFEB 		bl	rs_dreh
 667              	.LVL88:
 140:OLL.c         ****             ds_dreh(-1, 90);
 668              		.loc 1 140 0
 669 0694 0000E0E3 		mvn	r0, #0
 670 0698 5A10A0E3 		mov	r1, #90
 671 069c FEFFFFEB 		bl	ds_dreh
 672              	.LVL89:
 141:OLL.c         ****             ls_dreh(-1, 90);
 673              		.loc 1 141 0
 674 06a0 0000E0E3 		mvn	r0, #0
 675 06a4 5A10A0E3 		mov	r1, #90
 676 06a8 FEFFFFEB 		bl	ls_dreh
 677              	.LVL90:
 142:OLL.c         ****             ls_dreh(1, 90);
 678              		.loc 1 142 0
 679 06ac 0100A0E3 		mov	r0, #1
 680 06b0 5A10A0E3 		mov	r1, #90
 681 06b4 FEFFFFEB 		bl	ls_dreh
 682              	.LVL91:
 143:OLL.c         ****             rs_dreh(1, 90);
 683              		.loc 1 143 0
 684 06b8 0100A0E3 		mov	r0, #1
 685 06bc 5A10A0E3 		mov	r1, #90
 686 06c0 FEFFFFEB 		bl	rs_dreh
 687              	.LVL92:
 144:OLL.c         ****             rs_dreh(-1, 90);
 688              		.loc 1 144 0
 689 06c4 0000E0E3 		mvn	r0, #0
 690 06c8 5A10A0E3 		mov	r1, #90
 691 06cc FEFFFFEB 		bl	rs_dreh
 692              	.LVL93:
 145:OLL.c         ****             ds_dreh(-1, 90);
 693              		.loc 1 145 0
 694 06d0 0000E0E3 		mvn	r0, #0
 695 06d4 5A10A0E3 		mov	r1, #90
 696 06d8 FEFFFFEB 		bl	ds_dreh
 697              	.LVL94:
 146:OLL.c         ****             ls_dreh(1, 90);
 698              		.loc 1 146 0
 699 06dc 0100A0E3 		mov	r0, #1
 700 06e0 5A10A0E3 		mov	r1, #90
 701 06e4 FEFFFFEB 		bl	ls_dreh
 702              	.LVL95:
 147:OLL.c         ****             goto fertig;
 703              		.loc 1 147 0
 704 06e8 B20000EA 		b	.L29
 705              	.L25:
 148:OLL.c         ****         }
 149:OLL.c         ****         if ((color_data[0][1]==2)&&(color_data[0][3]==2)&&(color_data[0][5]==2)&&(color_data[0][7]=
 706              		.loc 1 149 0 discriminator 1
 707 06ec 0730D5E5 		ldrb	r3, [r5, #7]	@ zero_extendqisi2
 708 06f0 020053E3 		cmp	r3, #2
 709 06f4 A500001A 		bne	.L14
 710 06f8 0230D5E5 		ldrb	r3, [r5, #2]	@ zero_extendqisi2
 711 06fc 020053E3 		cmp	r3, #2
 712 0700 A200001A 		bne	.L14
 713 0704 0830D5E5 		ldrb	r3, [r5, #8]	@ zero_extendqisi2
 714 0708 020053E3 		cmp	r3, #2
 715 070c 9F00001A 		bne	.L14
 716 0710 2130D5E5 		ldrb	r3, [r5, #33]	@ zero_extendqisi2
 717 0714 020053E3 		cmp	r3, #2
 718 0718 9C00001A 		bne	.L14
 719 071c 0930D5E5 		ldrb	r3, [r5, #9]	@ zero_extendqisi2
 720 0720 020053E3 		cmp	r3, #2
 721 0724 9900001A 		bne	.L14
 150:OLL.c         ****         {
 151:OLL.c         ****             ls_dreh(1, 90);
 722              		.loc 1 151 0
 723 0728 0100A0E3 		mov	r0, #1
 724 072c 5A10A0E3 		mov	r1, #90
 725 0730 FEFFFFEB 		bl	ls_dreh
 726              	.LVL96:
 152:OLL.c         ****             fs_dreh(1, 90);
 727              		.loc 1 152 0
 728 0734 0100A0E3 		mov	r0, #1
 729 0738 5A10A0E3 		mov	r1, #90
 730 073c FEFFFFEB 		bl	fs_dreh
 731              	.LVL97:
 153:OLL.c         ****             ls_dreh(-1, 90);
 732              		.loc 1 153 0
 733 0740 0000E0E3 		mvn	r0, #0
 734 0744 5A10A0E3 		mov	r1, #90
 735 0748 FEFFFFEB 		bl	ls_dreh
 736              	.LVL98:
 154:OLL.c         ****             rs_dreh(-1, 90);
 737              		.loc 1 154 0
 738 074c 0000E0E3 		mvn	r0, #0
 739 0750 5A10A0E3 		mov	r1, #90
 740 0754 FEFFFFEB 		bl	rs_dreh
 741              	.LVL99:
 155:OLL.c         ****             rs_dreh(-1, 90);
 742              		.loc 1 155 0
 743 0758 0000E0E3 		mvn	r0, #0
 744 075c 5A10A0E3 		mov	r1, #90
 745 0760 FEFFFFEB 		bl	rs_dreh
 746              	.LVL100:
 156:OLL.c         ****             ls_dreh(1, 90); ///////////////////////
 747              		.loc 1 156 0
 748 0764 0100A0E3 		mov	r0, #1
 749 0768 5A10A0E3 		mov	r1, #90
 750 076c FEFFFFEB 		bl	ls_dreh
 751              	.LVL101:
 157:OLL.c         ****             ls_dreh(1, 90);
 752              		.loc 1 157 0
 753 0770 0100A0E3 		mov	r0, #1
 754 0774 5A10A0E3 		mov	r1, #90
 755 0778 FEFFFFEB 		bl	ls_dreh
 756              	.LVL102:
 158:OLL.c         ****             rs_dreh(-1, 90);
 757              		.loc 1 158 0
 758 077c 0000E0E3 		mvn	r0, #0
 759 0780 5A10A0E3 		mov	r1, #90
 760 0784 FEFFFFEB 		bl	rs_dreh
 761              	.LVL103:
 159:OLL.c         ****             goto fertig;
 762              		.loc 1 159 0
 763 0788 8A0000EA 		b	.L29
 764              	.L26:
 160:OLL.c         ****         }
 161:OLL.c         ****         if((color_data[0][1]==2)&&(color_data[0][3]==2)&&(color_data[0][5]==2)&&(color_data[0][7]==
 765              		.loc 1 161 0 discriminator 1
 766 078c 0730D5E5 		ldrb	r3, [r5, #7]	@ zero_extendqisi2
 767 0790 020053E3 		cmp	r3, #2
 768 0794 8000001A 		bne	.L15
 769 0798 0630D5E5 		ldrb	r3, [r5, #6]	@ zero_extendqisi2
 770 079c 020053E3 		cmp	r3, #2
 771 07a0 7D00001A 		bne	.L15
 772 07a4 0230D5E5 		ldrb	r3, [r5, #2]	@ zero_extendqisi2
 773 07a8 020053E3 		cmp	r3, #2
 774 07ac 7A00001A 		bne	.L15
 775 07b0 2C30D5E5 		ldrb	r3, [r5, #44]	@ zero_extendqisi2
 776 07b4 020053E3 		cmp	r3, #2
 777 07b8 7700001A 		bne	.L15
 778 07bc 0B30D5E5 		ldrb	r3, [r5, #11]	@ zero_extendqisi2
 779 07c0 020053E3 		cmp	r3, #2
 780 07c4 7400001A 		bne	.L15
 162:OLL.c         ****             //formular 25
 163:OLL.c         ****         {
 164:OLL.c         ****             fs_dreh(-1, 90);
 781              		.loc 1 164 0
 782 07c8 0000E0E3 		mvn	r0, #0
 783 07cc 5A10A0E3 		mov	r1, #90
 784 07d0 FEFFFFEB 		bl	fs_dreh
 785              	.LVL104:
 165:OLL.c         ****             bs_dreh(1, 90);
 786              		.loc 1 165 0
 787 07d4 0100A0E3 		mov	r0, #1
 788 07d8 5A10A0E3 		mov	r1, #90
 789 07dc FEFFFFEB 		bl	bs_dreh
 790              	.LVL105:
 166:OLL.c         ****             rs_dreh(1, 90);
 791              		.loc 1 166 0
 792 07e0 0100A0E3 		mov	r0, #1
 793 07e4 5A10A0E3 		mov	r1, #90
 794 07e8 FEFFFFEB 		bl	rs_dreh
 795              	.LVL106:
 167:OLL.c         ****             rs_dreh(-1, 90);
 796              		.loc 1 167 0
 797 07ec 0000E0E3 		mvn	r0, #0
 798 07f0 5A10A0E3 		mov	r1, #90
 799 07f4 FEFFFFEB 		bl	rs_dreh
 800              	.LVL107:
 168:OLL.c         ****             ls_dreh(-1, 90);
 801              		.loc 1 168 0
 802 07f8 0000E0E3 		mvn	r0, #0
 803 07fc 5A10A0E3 		mov	r1, #90
 804 0800 FEFFFFEB 		bl	ls_dreh
 805              	.LVL108:
 169:OLL.c         ****             ls_dreh(-1, 90);
 806              		.loc 1 169 0
 807 0804 0000E0E3 		mvn	r0, #0
 808 0808 5A10A0E3 		mov	r1, #90
 809 080c FEFFFFEB 		bl	ls_dreh
 810              	.LVL109:
 170:OLL.c         ****             rs_dreh(1, 90);
 811              		.loc 1 170 0
 812 0810 0100A0E3 		mov	r0, #1
 813 0814 5A10A0E3 		mov	r1, #90
 814 0818 FEFFFFEB 		bl	rs_dreh
 815              	.LVL110:
 171:OLL.c         ****             rs_dreh(1, 90);
 816              		.loc 1 171 0
 817 081c 0100A0E3 		mov	r0, #1
 818 0820 5A10A0E3 		mov	r1, #90
 819 0824 FEFFFFEB 		bl	rs_dreh
 820              	.LVL111:
 172:OLL.c         ****             goto fertig;
 821              		.loc 1 172 0
 822 0828 620000EA 		b	.L29
 823              	.L27:
 173:OLL.c         ****         }
 174:OLL.c         ****         if((color_data[0][1]==2)&&(color_data[0][3]==2)&&(color_data[0][5]==2)&&(color_data[0][7]==
 824              		.loc 1 174 0 discriminator 1
 825 082c 0730D5E5 		ldrb	r3, [r5, #7]	@ zero_extendqisi2
 826 0830 020053E3 		cmp	r3, #2
 827 0834 5B00001A 		bne	.L16
 828 0838 0230D5E5 		ldrb	r3, [r5, #2]	@ zero_extendqisi2
 829 083c 020053E3 		cmp	r3, #2
 830 0840 5800001A 		bne	.L16
 831 0844 2C30D5E5 		ldrb	r3, [r5, #44]	@ zero_extendqisi2
 832 0848 020053E3 		cmp	r3, #2
 833 084c 5500001A 		bne	.L16
 834 0850 0930D5E5 		ldrb	r3, [r5, #9]	@ zero_extendqisi2
 835 0854 020053E3 		cmp	r3, #2
 836 0858 5200001A 		bne	.L16
 837 085c 3530D5E5 		ldrb	r3, [r5, #53]	@ zero_extendqisi2
 838 0860 020053E3 		cmp	r3, #2
 839 0864 4F00001A 		bne	.L16
 175:OLL.c         ****         {
 176:OLL.c         ****             
 177:OLL.c         ****             rs_dreh(1, 90);
 840              		.loc 1 177 0
 841 0868 0100A0E3 		mov	r0, #1
 842 086c 5A10A0E3 		mov	r1, #90
 843 0870 FEFFFFEB 		bl	rs_dreh
 844              	.LVL112:
 178:OLL.c         ****             rs_dreh(-1, 90);
 845              		.loc 1 178 0
 846 0874 0000E0E3 		mvn	r0, #0
 847 0878 5A10A0E3 		mov	r1, #90
 848 087c FEFFFFEB 		bl	rs_dreh
 849              	.LVL113:
 179:OLL.c         ****             ds_dreh(-1, 90);
 850              		.loc 1 179 0
 851 0880 0000E0E3 		mvn	r0, #0
 852 0884 5A10A0E3 		mov	r1, #90
 853 0888 FEFFFFEB 		bl	ds_dreh
 854              	.LVL114:
 180:OLL.c         ****             ls_dreh(-1, 90);
 855              		.loc 1 180 0
 856 088c 0000E0E3 		mvn	r0, #0
 857 0890 5A10A0E3 		mov	r1, #90
 858 0894 FEFFFFEB 		bl	ls_dreh
 859              	.LVL115:
 181:OLL.c         ****             rs_dreh(-1, 90);
 860              		.loc 1 181 0
 861 0898 0000E0E3 		mvn	r0, #0
 862 089c 5A10A0E3 		mov	r1, #90
 863 08a0 FEFFFFEB 		bl	rs_dreh
 864              	.LVL116:
 182:OLL.c         ****             ls_dreh(1, 90);
 865              		.loc 1 182 0
 866 08a4 0100A0E3 		mov	r0, #1
 867 08a8 5A10A0E3 		mov	r1, #90
 868 08ac FEFFFFEB 		bl	ls_dreh
 869              	.LVL117:
 183:OLL.c         ****             rs_dreh(-1, 90);
 870              		.loc 1 183 0
 871 08b0 0000E0E3 		mvn	r0, #0
 872 08b4 5A10A0E3 		mov	r1, #90
 873 08b8 FEFFFFEB 		bl	rs_dreh
 874              	.LVL118:
 184:OLL.c         ****             ls_dreh(-1, 90);
 875              		.loc 1 184 0
 876 08bc 0000E0E3 		mvn	r0, #0
 877 08c0 5A10A0E3 		mov	r1, #90
 878 08c4 FEFFFFEB 		bl	ls_dreh
 879              	.LVL119:
 185:OLL.c         ****             goto fertig;
 880              		.loc 1 185 0
 881 08c8 3A0000EA 		b	.L29
 882              	.L28:
 186:OLL.c         ****         }
 187:OLL.c         ****         if((color_data[0][1]==2)&&(color_data[0][3]==2)&&(color_data[0][5]==2)&&(color_data[0][7]==
 883              		.loc 1 187 0 discriminator 1
 884 08cc 0730D5E5 		ldrb	r3, [r5, #7]	@ zero_extendqisi2
 885 08d0 020053E3 		cmp	r3, #2
 886 08d4 2100001A 		bne	.L9
 887 08d8 0830D5E5 		ldrb	r3, [r5, #8]	@ zero_extendqisi2
 888 08dc 020053E3 		cmp	r3, #2
 889 08e0 1E00001A 		bne	.L9
 890 08e4 2A30D5E5 		ldrb	r3, [r5, #42]	@ zero_extendqisi2
 891 08e8 020053E3 		cmp	r3, #2
 892 08ec 1B00001A 		bne	.L9
 893 08f0 2130D5E5 		ldrb	r3, [r5, #33]	@ zero_extendqisi2
 894 08f4 020053E3 		cmp	r3, #2
 895 08f8 1800001A 		bne	.L9
 896 08fc 3330D5E5 		ldrb	r3, [r5, #51]	@ zero_extendqisi2
 897 0900 020053E3 		cmp	r3, #2
 898 0904 1500001A 		bne	.L9
 188:OLL.c         ****             //formular 27
 189:OLL.c         ****         {
 190:OLL.c         ****             
 191:OLL.c         ****             rs_dreh(-1, 90);
 899              		.loc 1 191 0
 900 0908 0000E0E3 		mvn	r0, #0
 901 090c 5A10A0E3 		mov	r1, #90
 902 0910 FEFFFFEB 		bl	rs_dreh
 903              	.LVL120:
 192:OLL.c         ****             rs_dreh(1, 180);
 904              		.loc 1 192 0
 905 0914 0100A0E3 		mov	r0, #1
 906 0918 B410A0E3 		mov	r1, #180
 907 091c FEFFFFEB 		bl	rs_dreh
 908              	.LVL121:
 193:OLL.c         ****             ls_dreh(1, 90);
 909              		.loc 1 193 0
 910 0920 0100A0E3 		mov	r0, #1
 911 0924 5A10A0E3 		mov	r1, #90
 912 0928 FEFFFFEB 		bl	ls_dreh
 913              	.LVL122:
 194:OLL.c         ****             rs_dreh(1, 90);
 914              		.loc 1 194 0
 915 092c 0100A0E3 		mov	r0, #1
 916 0930 5A10A0E3 		mov	r1, #90
 917 0934 FEFFFFEB 		bl	rs_dreh
 918              	.LVL123:
 195:OLL.c         ****             ls_dreh(-1, 90);
 919              		.loc 1 195 0
 920 0938 0000E0E3 		mvn	r0, #0
 921 093c 5A10A0E3 		mov	r1, #90
 922 0940 FEFFFFEB 		bl	ls_dreh
 923              	.LVL124:
 196:OLL.c         ****             rs_dreh(1, 90);
 924              		.loc 1 196 0
 925 0944 0100A0E3 		mov	r0, #1
 926 0948 5A10A0E3 		mov	r1, #90
 927 094c FEFFFFEB 		bl	rs_dreh
 928              	.LVL125:
 197:OLL.c         ****             ls_dreh(1, 90);
 929              		.loc 1 197 0
 930 0950 0100A0E3 		mov	r0, #1
 931 0954 5A10A0E3 		mov	r1, #90
 932 0958 FEFFFFEB 		bl	ls_dreh
 933              	.LVL126:
 198:OLL.c         ****             goto fertig;
 934              		.loc 1 198 0
 935 095c 150000EA 		b	.L29
 936              	.L9:
  98:OLL.c         ****         
 937              		.loc 1 98 0
 938 0960 080054E1 		cmp	r4, r8
 939 0964 BEFEFF1A 		bne	.L17
 940              	.L11:
 941 0968 120000EA 		b	.L29
 942              	.L10:
 120:OLL.c         ****         {
 943              		.loc 1 120 0
 944 096c 0530D5E5 		ldrb	r3, [r5, #5]	@ zero_extendqisi2
 945 0970 020053E3 		cmp	r3, #2
 946 0974 FDFEFF0A 		beq	.L23
 947              	.L12:
 134:OLL.c         ****         {
 948              		.loc 1 134 0
 949 0978 0530D5E5 		ldrb	r3, [r5, #5]	@ zero_extendqisi2
 950 097c 020053E3 		cmp	r3, #2
 951 0980 28FFFF0A 		beq	.L24
 952              	.L13:
 149:OLL.c         ****         {
 953              		.loc 1 149 0
 954 0984 0530D5E5 		ldrb	r3, [r5, #5]	@ zero_extendqisi2
 955 0988 020053E3 		cmp	r3, #2
 956 098c 56FFFF0A 		beq	.L25
 957              	.L14:
 161:OLL.c         ****             //formular 25
 958              		.loc 1 161 0
 959 0990 0530D5E5 		ldrb	r3, [r5, #5]	@ zero_extendqisi2
 960 0994 020053E3 		cmp	r3, #2
 961 0998 7BFFFF0A 		beq	.L26
 962              	.L15:
 174:OLL.c         ****         {
 963              		.loc 1 174 0
 964 099c 0530D5E5 		ldrb	r3, [r5, #5]	@ zero_extendqisi2
 965 09a0 020053E3 		cmp	r3, #2
 966 09a4 A0FFFF0A 		beq	.L27
 967              	.L16:
 187:OLL.c         ****             //formular 27
 968              		.loc 1 187 0
 969 09a8 0530D5E5 		ldrb	r3, [r5, #5]	@ zero_extendqisi2
 970 09ac 020053E3 		cmp	r3, #2
 971 09b0 EAFFFF1A 		bne	.L9
 972 09b4 C4FFFFEA 		b	.L28
 973              	.L29:
 199:OLL.c         ****         }
 200:OLL.c         ****     }
 201:OLL.c         ****        fertig:return 0;
 202:OLL.c         **** }
 974              		.loc 1 202 0
 975 09b8 0000A0E3 		mov	r0, #0
 976 09bc 10D08DE2 		add	sp, sp, #16
 977              		@ sp needed
 978 09c0 F081BDE8 		ldmfd	sp!, {r4, r5, r6, r7, r8, pc}
 979              	.L31:
 980              		.align	2
 981              	.L30:
 982 09c4 00000000 		.word	color_data
 983 09c8 00000000 		.word	.LANCHOR0
 984              		.cfi_endproc
 985              	.LFE11:
 986              		.fnend
 988              		.section	.rodata
 989              		.align	2
 990              	.LANCHOR0 = . + 0
 991              	.LC0:
 992 0000 01000000 		.word	1
 993 0004 05000000 		.word	5
 994 0008 03000000 		.word	3
 995 000c 04000000 		.word	4
 996              		.text
 997              	.Letext0:
 998              		.file 2 "/usr/local/carlson-minot/crosscompilers/lib/gcc/arm-none-linux-gnueabi/4.8.3/include/stdd
 999              		.file 3 "/usr/local/carlson-minot/crosscompilers/arm-none-linux-gnueabi/libc-2014.05-29-sysroot/us
 1000              		.file 4 "/usr/local/carlson-minot/crosscompilers/arm-none-linux-gnueabi/libc-2014.05-29-sysroot/us
 1001              		.file 5 "/usr/local/carlson-minot/crosscompilers/arm-none-linux-gnueabi/libc-2014.05-29-sysroot/us
 1002              		.file 6 "main.h"
 1003              		.file 7 "Side_dreh.h"
 1004              		.file 8 "print_mode.h"